target datalayout = "e-m:e-p270:32:32-p271:32:32-p272:64:64-i64:64-i128:128-f80:128-n8:16:32:64-S128"
target triple = "x86_64-pc-linux-gnu"

%struct.tag_contents = type { i64, [1025 x i8] }

; Function Attrs: inlinehint nounwind uwtable
define internal void @html_tag_contents_append(ptr noundef %0, ptr noundef %1, ptr noundef %2) #8 {
  %4 = alloca ptr, align 8
  %5 = alloca ptr, align 8
  %6 = alloca ptr, align 8
  %7 = alloca i64, align 8
  %8 = alloca i32, align 4
  %9 = alloca i32, align 4
  %10 = alloca i8, align 1
  %11 = alloca i8, align 1
  %12 = alloca i8, align 1
  %13 = alloca i8, align 1
  store ptr %0, ptr %4, align 8, !tbaa !75
  store ptr %1, ptr %5, align 8, !tbaa !8
  store ptr %2, ptr %6, align 8, !tbaa !8
  call void @llvm.lifetime.start.p0(i64 8, ptr %7) #12
  call void @llvm.lifetime.start.p0(i64 4, ptr %8) #12
  store i32 0, ptr %8, align 4, !tbaa !14
  %14 = load ptr, ptr %5, align 8, !tbaa !8
  %15 = icmp ne ptr %14, null
  br i1 %15, label %16, label %19

16:                                               ; preds = %3
  %17 = load ptr, ptr %6, align 8, !tbaa !8
  %18 = icmp ne ptr %17, null
  br i1 %18, label %20, label %19

19:                                               ; preds = %16, %3
  store i32 1, ptr %9, align 4
  br label %168

20:                                               ; preds = %16
  %21 = load ptr, ptr %4, align 8, !tbaa !75
  %22 = getelementptr inbounds nuw %struct.tag_contents, ptr %21, i32 0, i32 0
  %23 = load i64, ptr %22, align 8, !tbaa !53
  store i64 %23, ptr %7, align 8, !tbaa !28
  br label %24

24:                                               ; preds = %161, %20
  %25 = load i64, ptr %7, align 8, !tbaa !28
  %26 = icmp ult i64 %25, 1024
  br i1 %26, label %27, label %31

27:                                               ; preds = %24
  %28 = load ptr, ptr %5, align 8, !tbaa !8
  %29 = load ptr, ptr %6, align 8, !tbaa !8
  %30 = icmp ult ptr %28, %29
  br label %31

31:                                               ; preds = %27, %24
  %32 = phi i1 [ false, %24 ], [ %30, %27 ]
  br i1 %32, label %33, label %164

33:                                               ; preds = %31
  call void @llvm.lifetime.start.p0(i64 1, ptr %10) #12
  %34 = load ptr, ptr %5, align 8, !tbaa !8
  %35 = getelementptr inbounds nuw i8, ptr %34, i32 1
  store ptr %35, ptr %5, align 8, !tbaa !8
  %36 = load i8, ptr %34, align 1, !tbaa !20
  store i8 %36, ptr %10, align 1, !tbaa !20
  %37 = load i32, ptr %8, align 4, !tbaa !14
  %38 = icmp ne i32 %37, 0
  br i1 %38, label %39, label %139

39:                                               ; preds = %33
  %40 = load i8, ptr %10, align 1, !tbaa !20
  %41 = zext i8 %40 to i32
  %42 = icmp slt i32 %41, 128
  br i1 %42, label %46, label %43

43:                                               ; preds = %39
  %44 = load i32, ptr %8, align 4, !tbaa !14
  %45 = icmp uge i32 %44, 65536
  br i1 %45, label %46, label %139

46:                                               ; preds = %43, %39
  %47 = load i32, ptr %8, align 4, !tbaa !14
  %48 = icmp eq i32 %47, 14909570
  br i1 %48, label %70, label %49

49:                                               ; preds = %46
  %50 = load i32, ptr %8, align 4, !tbaa !14
  %51 = icmp eq i32 %50, 15711374
  br i1 %51, label %70, label %52

52:                                               ; preds = %49
  %53 = load i32, ptr %8, align 4, !tbaa !14
  %54 = icmp eq i32 %53, 15710610
  br i1 %54, label %70, label %55

55:                                               ; preds = %52
  %56 = load i32, ptr %8, align 4, !tbaa !14
  %57 = icmp eq i32 %56, 161
  br i1 %57, label %58, label %82

58:                                               ; preds = %55
  %59 = load i8, ptr %10, align 1, !tbaa !20
  %60 = zext i8 %59 to i32
  %61 = icmp eq i32 %60, 67
  br i1 %61, label %70, label %62

62:                                               ; preds = %58
  %63 = load i8, ptr %10, align 1, !tbaa !20
  %64 = zext i8 %63 to i32
  %65 = icmp eq i32 %64, 68
  br i1 %65, label %70, label %66

66:                                               ; preds = %62
  %67 = load i8, ptr %10, align 1, !tbaa !20
  %68 = zext i8 %67 to i32
  %69 = icmp eq i32 %68, 79
  br i1 %69, label %70, label %82

70:                                               ; preds = %66, %62, %58, %52, %49, %46
  %71 = load ptr, ptr %4, align 8, !tbaa !75
  %72 = getelementptr inbounds nuw %struct.tag_contents, ptr %71, i32 0, i32 1
  %73 = load i64, ptr %7, align 8, !tbaa !28
  %74 = add i64 %73, 1
  store i64 %74, ptr %7, align 8, !tbaa !28
  %75 = getelementptr inbounds nuw [1025 x i8], ptr %72, i64 0, i64 %73
  store i8 46, ptr %75, align 1, !tbaa !20
  %76 = load i32, ptr %8, align 4, !tbaa !14
  %77 = icmp eq i32 %76, 161
  br i1 %77, label %78, label %81

78:                                               ; preds = %70
  %79 = load i64, ptr %7, align 8, !tbaa !28
  %80 = add i64 %79, -1
  store i64 %80, ptr %7, align 8, !tbaa !28
  store i32 0, ptr %8, align 4, !tbaa !14
  store i32 4, ptr %9, align 4
  br label %158

81:                                               ; preds = %70
  br label %138

82:                                               ; preds = %66, %55
  call void @llvm.lifetime.start.p0(i64 1, ptr %11) #12
  %83 = load i32, ptr %8, align 4, !tbaa !14
  %84 = lshr i32 %83, 16
  %85 = trunc i32 %84 to i8
  store i8 %85, ptr %11, align 1, !tbaa !20
  call void @llvm.lifetime.start.p0(i64 1, ptr %12) #12
  %86 = load i32, ptr %8, align 4, !tbaa !14
  %87 = lshr i32 %86, 8
  %88 = and i32 %87, 255
  %89 = trunc i32 %88 to i8
  store i8 %89, ptr %12, align 1, !tbaa !20
  call void @llvm.lifetime.start.p0(i64 1, ptr %13) #12
  %90 = load i32, ptr %8, align 4, !tbaa !14
  %91 = and i32 %90, 255
  %92 = trunc i32 %91 to i8
  store i8 %92, ptr %13, align 1, !tbaa !20
  %93 = load i8, ptr %11, align 1, !tbaa !20
  %94 = zext i8 %93 to i32
  %95 = icmp ne i32 %94, 0
  br i1 %95, label %96, label %107

96:                                               ; preds = %82
  %97 = load i64, ptr %7, align 8, !tbaa !28
  %98 = add i64 %97, 1
  %99 = icmp ult i64 %98, 1024
  br i1 %99, label %100, label %107

100:                                              ; preds = %96
  %101 = load i8, ptr %11, align 1, !tbaa !20
  %102 = load ptr, ptr %4, align 8, !tbaa !75
  %103 = getelementptr inbounds nuw %struct.tag_contents, ptr %102, i32 0, i32 1
  %104 = load i64, ptr %7, align 8, !tbaa !28
  %105 = add i64 %104, 1
  store i64 %105, ptr %7, align 8, !tbaa !28
  %106 = getelementptr inbounds nuw [1025 x i8], ptr %103, i64 0, i64 %104
  store i8 %101, ptr %106, align 1, !tbaa !20
  br label %107

107:                                              ; preds = %100, %96, %82
  %108 = load i8, ptr %11, align 1, !tbaa !20
  %109 = zext i8 %108 to i32
  %110 = icmp ne i32 %109, 0
  br i1 %110, label %115, label %111

111:                                              ; preds = %107
  %112 = load i8, ptr %12, align 1, !tbaa !20
  %113 = zext i8 %112 to i32
  %114 = icmp ne i32 %113, 0
  br i1 %114, label %115, label %126

115:                                              ; preds = %111, %107
  %116 = load i64, ptr %7, align 8, !tbaa !28
  %117 = add i64 %116, 1
  %118 = icmp ult i64 %117, 1024
  br i1 %118, label %119, label %126

119:                                              ; preds = %115
  %120 = load i8, ptr %12, align 1, !tbaa !20
  %121 = load ptr, ptr %4, align 8, !tbaa !75
  %122 = getelementptr inbounds nuw %struct.tag_contents, ptr %121, i32 0, i32 1
  %123 = load i64, ptr %7, align 8, !tbaa !28
  %124 = add i64 %123, 1
  store i64 %124, ptr %7, align 8, !tbaa !28
  %125 = getelementptr inbounds nuw [1025 x i8], ptr %122, i64 0, i64 %123
  store i8 %120, ptr %125, align 1, !tbaa !20
  br label %126

126:                                              ; preds = %119, %115, %111
  %127 = load i64, ptr %7, align 8, !tbaa !28
  %128 = add i64 %127, 1
  %129 = icmp ult i64 %128, 1024
  br i1 %129, label %130, label %137

130:                                              ; preds = %126
  %131 = load i8, ptr %13, align 1, !tbaa !20
  %132 = load ptr, ptr %4, align 8, !tbaa !75
  %133 = getelementptr inbounds nuw %struct.tag_contents, ptr %132, i32 0, i32 1
  %134 = load i64, ptr %7, align 8, !tbaa !28
  %135 = add i64 %134, 1
  store i64 %135, ptr %7, align 8, !tbaa !28
  %136 = getelementptr inbounds nuw [1025 x i8], ptr %133, i64 0, i64 %134
  store i8 %131, ptr %136, align 1, !tbaa !20
  br label %137

137:                                              ; preds = %130, %126
  call void @llvm.lifetime.end.p0(i64 1, ptr %13) #12
  call void @llvm.lifetime.end.p0(i64 1, ptr %12) #12
  call void @llvm.lifetime.end.p0(i64 1, ptr %11) #12
  br label %138

138:                                              ; preds = %137, %81
  store i32 0, ptr %8, align 4, !tbaa !14
  br label %139

139:                                              ; preds = %138, %43, %33
  %140 = load i8, ptr %10, align 1, !tbaa !20
  %141 = zext i8 %140 to i32
  %142 = icmp sge i32 %141, 128
  br i1 %142, label %143, label %151

143:                                              ; preds = %139
  %144 = load i32, ptr %8, align 4, !tbaa !14
  %145 = shl i32 %144, 8
  %146 = load i8, ptr %10, align 1, !tbaa !20
  %147 = zext i8 %146 to i32
  %148 = or i32 %145, %147
  store i32 %148, ptr %8, align 4, !tbaa !14
  %149 = load i64, ptr %7, align 8, !tbaa !28
  %150 = add i64 %149, -1
  store i64 %150, ptr %7, align 8, !tbaa !28
  br label %157

151:                                              ; preds = %139
  %152 = load i8, ptr %10, align 1, !tbaa !20
  %153 = load ptr, ptr %4, align 8, !tbaa !75
  %154 = getelementptr inbounds nuw %struct.tag_contents, ptr %153, i32 0, i32 1
  %155 = load i64, ptr %7, align 8, !tbaa !28
  %156 = getelementptr inbounds nuw [1025 x i8], ptr %154, i64 0, i64 %155
  store i8 %152, ptr %156, align 1, !tbaa !20
  br label %157

157:                                              ; preds = %151, %143
  store i32 0, ptr %9, align 4
  br label %158

158:                                              ; preds = %157, %78
  call void @llvm.lifetime.end.p0(i64 1, ptr %10) #12
  %159 = load i32, ptr %9, align 4
  switch i32 %159, label %171 [
    i32 0, label %160
    i32 4, label %161
  ]

160:                                              ; preds = %158
  br label %161

161:                                              ; preds = %160, %158
  %162 = load i64, ptr %7, align 8, !tbaa !28
  %163 = add i64 %162, 1
  store i64 %163, ptr %7, align 8, !tbaa !28
  br label %24

164:                                              ; preds = %31
  %165 = load i64, ptr %7, align 8, !tbaa !28
  %166 = load ptr, ptr %4, align 8, !tbaa !75
  %167 = getelementptr inbounds nuw %struct.tag_contents, ptr %166, i32 0, i32 0
  store i64 %165, ptr %167, align 8, !tbaa !53
  store i32 0, ptr %9, align 4
  br label %168

168:                                              ; preds = %164, %19
  call void @llvm.lifetime.end.p0(i64 4, ptr %8) #12
  call void @llvm.lifetime.end.p0(i64 8, ptr %7) #12
  %169 = load i32, ptr %9, align 4
  switch i32 %169, label %171 [
    i32 0, label %170
    i32 1, label %170
  ]

170:                                              ; preds = %168, %168
  ret void

171:                                              ; preds = %168, %158
  unreachable
}