; Function Attrs: inlinehint nofree norecurse nosync nounwind memory(argmem: readwrite) uwtable
define internal fastcc void @html_tag_contents_append(ptr noundef nonnull captures(none) %0, ptr noundef nonnull readonly %1, ptr noundef readnone %2) unnamed_addr #11 {
  %.not = icmp eq ptr %2, null
  br i1 %.not, label %53, label %4

4:                                                ; preds = %3
  %5 = load i64, ptr %0, align 8, !tbaa !32
  %6 = icmp ult i64 %5, 1024
  %7 = icmp ult ptr %1, %2
  %8 = and i1 %6, %7
  br i1 %8, label %.lr.ph, label %._crit_edge

.lr.ph:                                           ; preds = %4
  %9 = getelementptr inbounds nuw i8, ptr %0, i64 8
  br label %10

10:                                               ; preds = %.lr.ph, %48
  %.092 = phi ptr [ %1, %.lr.ph ], [ %11, %48 ]
  %.06491 = phi i64 [ %5, %.lr.ph ], [ %49, %48 ]
  %.06590 = phi i32 [ 0, %.lr.ph ], [ %.267, %48 ]
  %11 = getelementptr inbounds nuw i8, ptr %.092, i64 1
  %12 = load i8, ptr %.092, align 1, !tbaa !16
  %.not75 = icmp eq i32 %.06590, 0
  br i1 %.not75, label %40, label %13

13:                                               ; preds = %10
  %14 = icmp sgt i8 %12, -1
  %15 = icmp ugt i32 %.06590, 65535
  %or.cond3 = or i1 %14, %15
  br i1 %or.cond3, label %16, label %.thread85

16:                                               ; preds = %13
  switch i32 %.06590, label %19 [
    i32 15711374, label %.sink.split
    i32 15710610, label %.sink.split
    i32 14909570, label %.sink.split
    i32 161, label %17
  ]

17:                                               ; preds = %16
  switch i8 %12, label %.thread81 [
    i8 79, label %.thread
    i8 68, label %.thread
    i8 67, label %.thread
  ]

.thread:                                          ; preds = %17, %17, %17
  %18 = getelementptr inbounds nuw [1025 x i8], ptr %9, i64 0, i64 %.06491
  store i8 46, ptr %18, align 1, !tbaa !16
  br label %48

19:                                               ; preds = %16
  %20 = lshr i32 %.06590, 8
  %21 = trunc i32 %20 to i8
  %22 = trunc i32 %.06590 to i8
  %23 = and i32 %.06590, 16711680
  %.not76 = icmp ne i32 %23, 0
  %24 = icmp samesign ult i64 %.06491, 1023
  %or.cond = and i1 %.not76, %24
  br i1 %or.cond, label %25, label %30

25:                                               ; preds = %19
  %26 = lshr i32 %.06590, 16
  %27 = trunc i32 %26 to i8
  %28 = add nuw nsw i64 %.06491, 1
  %29 = getelementptr inbounds nuw [1025 x i8], ptr %9, i64 0, i64 %.06491
  store i8 %27, ptr %29, align 1, !tbaa !16
  br label %30

30:                                               ; preds = %25, %19
  %.4 = phi i64 [ %28, %25 ], [ %.06491, %19 ]
  %31 = and i32 %.06590, 16776960
  %or.cond16.not = icmp ne i32 %31, 0
  %32 = icmp samesign ult i64 %.4, 1023
  %or.cond77 = select i1 %or.cond16.not, i1 %32, i1 false
  br i1 %or.cond77, label %33, label %.thread81

33:                                               ; preds = %30
  %34 = add nuw nsw i64 %.4, 1
  %35 = getelementptr inbounds nuw [1025 x i8], ptr %9, i64 0, i64 %.4
  store i8 %21, ptr %35, align 1, !tbaa !16
  br label %.thread81

.thread81:                                        ; preds = %17, %30, %33
  %36 = phi i8 [ %22, %33 ], [ %22, %30 ], [ -95, %17 ]
  %.5 = phi i64 [ %34, %33 ], [ %.4, %30 ], [ %.06491, %17 ]
  %37 = icmp samesign ult i64 %.5, 1023
  br i1 %37, label %.sink.split, label %40

.sink.split:                                      ; preds = %.thread81, %16, %16, %16
  %.06491.sink94 = phi i64 [ %.06491, %16 ], [ %.06491, %16 ], [ %.06491, %16 ], [ %.5, %.thread81 ]
  %.sink = phi i8 [ 46, %16 ], [ 46, %16 ], [ 46, %16 ], [ %36, %.thread81 ]
  %38 = add nuw nsw i64 %.06491.sink94, 1
  %39 = getelementptr inbounds nuw [1025 x i8], ptr %9, i64 0, i64 %.06491.sink94
  store i8 %.sink, ptr %39, align 1, !tbaa !16
  br label %40

40:                                               ; preds = %.sink.split, %.thread81, %10
  %.1 = phi i64 [ %.06491, %10 ], [ 1023, %.thread81 ], [ %38, %.sink.split ]
  %41 = icmp slt i8 %12, 0
  br i1 %41, label %.thread85, label %46

.thread85:                                        ; preds = %13, %40
  %.189 = phi i64 [ %.1, %40 ], [ %.06491, %13 ]
  %.16688 = phi i32 [ 0, %40 ], [ %.06590, %13 ]
  %42 = zext i8 %12 to i32
  %43 = shl nuw nsw i32 %.16688, 8
  %44 = or disjoint i32 %43, %42
  %45 = add nsw i64 %.189, -1
  br label %48

46:                                               ; preds = %40
  %47 = getelementptr inbounds nuw [1025 x i8], ptr %9, i64 0, i64 %.1
  store i8 %12, ptr %47, align 1, !tbaa !16
  br label %48

48:                                               ; preds = %.thread, %.thread85, %46
  %.267 = phi i32 [ %44, %.thread85 ], [ 0, %46 ], [ 0, %.thread ]
  %.2 = phi i64 [ %45, %.thread85 ], [ %.1, %46 ], [ %.06491, %.thread ]
  %49 = add nsw i64 %.2, 1
  %50 = icmp ult i64 %49, 1024
  %51 = icmp ult ptr %11, %2
  %52 = select i1 %50, i1 %51, i1 false
  br i1 %52, label %10, label %._crit_edge

._crit_edge:                                      ; preds = %48, %4
  %.064.lcssa = phi i64 [ %5, %4 ], [ %49, %48 ]
  store i64 %.064.lcssa, ptr %0, align 8, !tbaa !32
  br label %53

53:                                               ; preds = %3, %._crit_edge
  ret void
}